target datalayout = "e-m:e-p270:32:32-p271:32:32-p272:64:64-i64:64-i128:128-f80:128-n8:16:32:64-S128"
target triple = "x86_64-pc-linux-gnu"

%struct.Elf64_Shdr = type { i32, i32, i64, i64, i64, i64, i32, i32, i64, i64 }
%class.MarkedFileReader = type { %class.FileReader, i64 }
%class.FileReader = type { ptr, ptr }
%"class.DwarfFile::DebugAranges" = type { ptr, %"class.DwarfFile::MarkedDwarfFileReader", i64, i64 }
%"class.DwarfFile::MarkedDwarfFileReader" = type { %class.MarkedFileReader, i64, i64 }

@.str.6 = private unnamed_addr constant [15 x i8] c".debug_aranges\00", align 1

; Function Attrs: mustprogress nounwind uwtable
define hidden noundef zeroext i1 @_ZN10FileReader12set_positionEl(ptr noundef nonnull align 8 dereferenceable(16) %0, i64 noundef %1) unnamed_addr #1 align 2 {
  %3 = alloca ptr, align 8
  %4 = alloca i64, align 8
  store ptr %0, ptr %3, align 8
  store i64 %1, ptr %4, align 8
  %5 = load ptr, ptr %3, align 8
  %6 = getelementptr inbounds %class.FileReader, ptr %5, i32 0, i32 1
  %7 = load ptr, ptr %6, align 8
  %8 = load i64, ptr %4, align 8
  %9 = call i32 @fseek(ptr noundef %7, i64 noundef %8, i32 noundef 0)
  %10 = icmp eq i32 %9, 0
  ret i1 %10
}

; Function Attrs: mustprogress nounwind uwtable
define hidden noundef zeroext i1 @_ZN9DwarfFile21MarkedDwarfFileReader12set_positionEl(ptr noundef nonnull align 8 dereferenceable(40) %0, i64 noundef %1) unnamed_addr #1 align 2 {
  %3 = alloca i1, align 1
  %4 = alloca ptr, align 8
  %5 = alloca i64, align 8
  store ptr %0, ptr %4, align 8
  store i64 %1, ptr %5, align 8
  %6 = load ptr, ptr %4, align 8
  %7 = load i64, ptr %5, align 8
  %8 = icmp slt i64 %7, 0
  br i1 %8, label %9, label %10

9:                                                ; preds = %2
  store i1 false, ptr %3, align 1
  br label %15

10:                                               ; preds = %2
  %11 = load i64, ptr %5, align 8
  %12 = getelementptr inbounds %"class.DwarfFile::MarkedDwarfFileReader", ptr %6, i32 0, i32 1
  store i64 %11, ptr %12, align 8
  %13 = load i64, ptr %5, align 8
  %14 = call noundef zeroext i1 @_ZN10FileReader12set_positionEl(ptr noundef nonnull align 8 dereferenceable(16) %6, i64 noundef %13)
  store i1 %14, ptr %3, align 1
  br label %15

15:                                               ; preds = %10, %9
  %16 = load i1, ptr %3, align 1
  ret i1 %16
}

; Function Attrs: mustprogress nounwind uwtable
define linkonce_odr hidden void @_ZN9DwarfFile21MarkedDwarfFileReader11set_max_posEl(ptr noundef nonnull align 8 dereferenceable(40) %0, i64 noundef %1) #1 comdat align 2 {
  %3 = alloca ptr, align 8
  %4 = alloca i64, align 8
  store ptr %0, ptr %3, align 8
  store i64 %1, ptr %4, align 8
  %5 = load ptr, ptr %3, align 8
  %6 = load i64, ptr %4, align 8
  %7 = getelementptr inbounds %"class.DwarfFile::MarkedDwarfFileReader", ptr %5, i32 0, i32 2
  store i64 %6, ptr %7, align 8
  ret void
}

; Function Attrs: mustprogress nounwind uwtable
define hidden noundef zeroext i1 @_ZN9DwarfFile12DebugAranges19read_section_headerEv(ptr noundef nonnull align 8 dereferenceable(64) %0) #1 align 2 {
  %2 = alloca i1, align 1
  %3 = alloca ptr, align 8
  %4 = alloca %struct.Elf64_Shdr, align 8
  store ptr %0, ptr %3, align 8
  %5 = load ptr, ptr %3, align 8
  %6 = getelementptr inbounds %"class.DwarfFile::DebugAranges", ptr %5, i32 0, i32 0
  %7 = load ptr, ptr %6, align 8
  %8 = call noundef zeroext i1 @_ZNK7ElfFile19read_section_headerEPKcR10Elf64_Shdr(ptr noundef nonnull align 8 dereferenceable(144) %7, ptr noundef @.str.6, ptr noundef nonnull align 8 dereferenceable(64) %4)
  br i1 %8, label %10, label %9

9:                                                ; preds = %1
  store i1 false, ptr %2, align 1
  br label %24

10:                                               ; preds = %1
  %11 = getelementptr inbounds %struct.Elf64_Shdr, ptr %4, i32 0, i32 4
  %12 = load i64, ptr %11, align 8
  %13 = getelementptr inbounds %"class.DwarfFile::DebugAranges", ptr %5, i32 0, i32 2
  store i64 %12, ptr %13, align 8
  %14 = getelementptr inbounds %"class.DwarfFile::DebugAranges", ptr %5, i32 0, i32 1
  %15 = getelementptr inbounds %struct.Elf64_Shdr, ptr %4, i32 0, i32 4
  %16 = load i64, ptr %15, align 8
  %17 = getelementptr inbounds %struct.Elf64_Shdr, ptr %4, i32 0, i32 5
  %18 = load i64, ptr %17, align 8
  %19 = add i64 %16, %18
  call void @_ZN9DwarfFile21MarkedDwarfFileReader11set_max_posEl(ptr noundef nonnull align 8 dereferenceable(40) %14, i64 noundef %19)
  %20 = getelementptr inbounds %"class.DwarfFile::DebugAranges", ptr %5, i32 0, i32 1
  %21 = getelementptr inbounds %struct.Elf64_Shdr, ptr %4, i32 0, i32 4
  %22 = load i64, ptr %21, align 8
  %23 = call noundef zeroext i1 @_ZN9DwarfFile21MarkedDwarfFileReader12set_positionEl(ptr noundef nonnull align 8 dereferenceable(40) %20, i64 noundef %22)
  store i1 %23, ptr %2, align 1
  br label %24

24:                                               ; preds = %10, %9
  %25 = load i1, ptr %2, align 1
  ret i1 %25
}