; Function Attrs: mustprogress nounwind uwtable
define hidden noundef zeroext i1 @_ZN9DwarfFile12DebugAranges19read_section_headerEv(ptr nocapture noundef nonnull align 8 dereferenceable(64) %0) local_unnamed_addr #0 align 2 {
  %2 = alloca %struct.Elf64_Shdr, align 8
  %3 = load ptr, ptr %0, align 8
  %4 = call noundef zeroext i1 @_ZNK7ElfFile19read_section_headerEPKcR10Elf64_Shdr(ptr noundef nonnull align 8 dereferenceable(144) %3, ptr noundef nonnull @.str.6, ptr noundef nonnull align 8 dereferenceable(64) %2)
  br i1 %4, label %5, label %_ZN9DwarfFile21MarkedDwarfFileReader12set_positionEl.exit

5:                                                ; preds = %1
  %6 = getelementptr inbounds i8, ptr %2, i64 24
  %7 = load i64, ptr %6, align 8
  %8 = getelementptr inbounds i8, ptr %0, i64 48
  store i64 %7, ptr %8, align 8
  %9 = getelementptr inbounds i8, ptr %2, i64 32
  %10 = load i64, ptr %9, align 8
  %11 = add i64 %10, %7
  %12 = getelementptr inbounds i8, ptr %0, i64 40
  store i64 %11, ptr %12, align 8
  %13 = icmp slt i64 %7, 0
  br i1 %13, label %_ZN9DwarfFile21MarkedDwarfFileReader12set_positionEl.exit, label %14

14:                                               ; preds = %5
  %15 = getelementptr inbounds i8, ptr %0, i64 32
  store i64 %7, ptr %15, align 8
  %16 = getelementptr inbounds i8, ptr %0, i64 16
  %17 = load ptr, ptr %16, align 8
  %18 = tail call i32 @fseek(ptr noundef %17, i64 noundef %7, i32 noundef 0)
  %19 = icmp eq i32 %18, 0
  br label %_ZN9DwarfFile21MarkedDwarfFileReader12set_positionEl.exit

_ZN9DwarfFile21MarkedDwarfFileReader12set_positionEl.exit: ; preds = %14, %5, %1
  %.0 = phi i1 [ false, %1 ], [ %19, %14 ], [ false, %5 ]
  ret i1 %.0
}